target datalayout = "e-m:e-p270:32:32-p271:32:32-p272:64:64-i64:64-i128:128-f80:128-n8:16:32:64-S128"
target triple = "x86_64-pc-linux-gnu"

%struct._zend_executor_globals = type { %struct._zval_struct, %struct._zval_struct, [32 x ptr], ptr, ptr, %struct._zend_array, %struct._zend_array, ptr, i32, i32, ptr, ptr, ptr, ptr, ptr, ptr, i64, ptr, ptr, i32, i32, i64, i32, i32, i32, i8, i8, %struct.zend_atomic_bool_s, %struct.zend_atomic_bool_s, ptr, i64, ptr, ptr, %struct._zend_array, %struct._zend_array, i32, i8, %struct._zval_struct, %struct._zval_struct, %struct._zend_stack, %struct._zend_stack, %struct._zend_stack, ptr, i32, i32, i64, ptr, ptr, ptr, %struct._zend_objects_store, ptr, ptr, ptr, [3 x %struct._zend_op], ptr, i8, i8, i64, i32, i32, ptr, [16 x %struct._HashTableIterator], ptr, %union._zend_function, %struct._zend_op, %struct._zend_array, i64, %struct.zend_get_gc_buffer, ptr, ptr, ptr, i64, i8, i32, ptr, ptr, i64, %struct._zend_call_stack, i64, i64, [6 x ptr] }
%struct.zend_atomic_bool_s = type { i8 }
%struct._zval_struct = type { %union._zend_value, %union.anon, %union.anon.2 }
%union._zend_value = type { i64 }
%union.anon = type { i32 }
%union.anon.2 = type { i32 }
%struct._zend_stack = type { i32, i32, i32, ptr }
%struct._zend_objects_store = type { ptr, i32, i32, i32 }
%struct._HashTableIterator = type { ptr, i32, i32 }
%union._zend_function = type { %struct._zend_op_array }
%struct._zend_op_array = type { i8, [3 x i8], i32, ptr, ptr, ptr, i32, i32, ptr, ptr, ptr, ptr, i32, i32, i32, i32, ptr, ptr, ptr, ptr, ptr, i32, i32, ptr, ptr, ptr, i32, i32, i32, i32, ptr, ptr, [6 x ptr] }
%struct._zend_op = type { ptr, %union._znode_op, %union._znode_op, %union._znode_op, i32, i32, i8, i8, i8, i8 }
%union._znode_op = type { i32 }
%struct._zend_array = type { %struct._zend_refcounted_h, %union.anon.4, i32, %union.anon.6, i32, i32, i32, i32, i64, ptr }
%struct._zend_refcounted_h = type { i32, %union.anon.3 }
%union.anon.3 = type { i32 }
%union.anon.4 = type { i32 }
%union.anon.6 = type { ptr }
%struct.zend_get_gc_buffer = type { ptr, ptr, ptr }
%struct._zend_call_stack = type { ptr, i64 }
%struct._zend_execute_data = type { ptr, ptr, ptr, ptr, %struct._zval_struct, ptr, ptr, ptr, ptr }
%struct._php_stream_bucket_brigade = type { ptr, ptr }
%struct._php_stream_bucket = type { ptr, ptr, ptr, ptr, i64, i8, i8, i32 }

@executor_globals = external global %struct._zend_executor_globals, align 8
@.str.1 = private unnamed_addr constant [26 x i8] c"userfilter.bucket brigade\00", align 1
@le_bucket_brigade = internal global i32 0, align 4
@le_bucket = internal global i32 0, align 4
@.str.7 = private unnamed_addr constant [7 x i8] c"bucket\00", align 1
@.str.8 = private unnamed_addr constant [5 x i8] c"data\00", align 1
@.str.9 = private unnamed_addr constant [8 x i8] c"datalen\00", align 1

; Function Attrs: nounwind uwtable
define hidden void @zif_stream_bucket_make_writeable(ptr noundef %0, ptr noundef %1) #0 {
  %3 = alloca ptr, align 8
  %4 = alloca ptr, align 8
  %5 = alloca i64, align 8
  %6 = alloca ptr, align 8
  %7 = alloca ptr, align 8
  %8 = alloca ptr, align 8
  %9 = alloca i64, align 8
  %10 = alloca ptr, align 8
  %11 = alloca ptr, align 8
  %12 = alloca ptr, align 8
  %13 = alloca ptr, align 8
  %14 = alloca ptr, align 8
  %15 = alloca i1, align 1
  %16 = alloca ptr, align 8
  %17 = alloca ptr, align 8
  %18 = alloca i8, align 1
  %19 = alloca ptr, align 8
  %20 = alloca ptr, align 8
  %21 = alloca ptr, align 8
  %22 = alloca %struct._zval_struct, align 8
  %23 = alloca ptr, align 8
  %24 = alloca ptr, align 8
  %25 = alloca i32, align 4
  %26 = alloca i32, align 4
  %27 = alloca i32, align 4
  %28 = alloca i32, align 4
  %29 = alloca i32, align 4
  %30 = alloca ptr, align 8
  %31 = alloca ptr, align 8
  %32 = alloca i32, align 4
  %33 = alloca ptr, align 8
  %34 = alloca i8, align 1
  %35 = alloca i8, align 1
  %36 = alloca i32, align 4
  %37 = alloca ptr, align 8
  store ptr %0, ptr %19, align 8
  store ptr %1, ptr %20, align 8
  br label %38

38:                                               ; preds = %2
  store i32 0, ptr %25, align 4
  store i32 1, ptr %26, align 4
  store i32 1, ptr %27, align 4
  %39 = load ptr, ptr %19, align 8
  %40 = getelementptr inbounds %struct._zend_execute_data, ptr %39, i32 0, i32 4
  %41 = getelementptr inbounds %struct._zval_struct, ptr %40, i32 0, i32 2
  %42 = load i32, ptr %41, align 4
  store i32 %42, ptr %28, align 4
  store i32 0, ptr %29, align 4
  store ptr null, ptr %31, align 8
  store i32 0, ptr %32, align 4
  store ptr null, ptr %33, align 8
  store i8 0, ptr %34, align 1
  store i8 0, ptr %35, align 1
  store i32 0, ptr %36, align 4
  br label %43

43:                                               ; preds = %38
  %44 = load i32, ptr %28, align 4
  %45 = load i32, ptr %26, align 4
  %46 = icmp ult i32 %44, %45
  %47 = xor i1 %46, true
  %48 = xor i1 %47, true
  %49 = zext i1 %48 to i32
  %50 = sext i32 %49 to i64
  %51 = icmp ne i64 %50, 0
  br i1 %51, label %61, label %52

52:                                               ; preds = %43
  %53 = load i32, ptr %28, align 4
  %54 = load i32, ptr %27, align 4
  %55 = icmp ugt i32 %53, %54
  %56 = xor i1 %55, true
  %57 = xor i1 %56, true
  %58 = zext i1 %57 to i32
  %59 = sext i32 %58 to i64
  %60 = icmp ne i64 %59, 0
  br i1 %60, label %61, label %64

61:                                               ; preds = %52, %43
  %62 = load i32, ptr %26, align 4
  %63 = load i32, ptr %27, align 4
  call void @zend_wrong_parameters_count_error(i32 noundef %62, i32 noundef %63)
  store i32 1, ptr %36, align 4
  br label %148

64:                                               ; preds = %52
  %65 = load ptr, ptr %19, align 8
  %66 = getelementptr inbounds %struct._zval_struct, ptr %65, i64 4
  store ptr %66, ptr %30, align 8
  %67 = load i32, ptr %29, align 4
  %68 = add i32 %67, 1
  store i32 %68, ptr %29, align 4
  %69 = load i32, ptr %29, align 4
  %70 = load i32, ptr %26, align 4
  %71 = icmp ule i32 %69, %70
  br i1 %71, label %77, label %72

72:                                               ; preds = %64
  %73 = load i8, ptr %35, align 1
  %74 = trunc i8 %73 to i1
  %75 = zext i1 %74 to i32
  %76 = icmp eq i32 %75, 1
  br label %77

77:                                               ; preds = %72, %64
  %78 = phi i1 [ true, %64 ], [ %76, %72 ]
  call void @llvm.assume(i1 %78)
  %79 = load i32, ptr %29, align 4
  %80 = load i32, ptr %26, align 4
  %81 = icmp ugt i32 %79, %80
  br i1 %81, label %87, label %82

82:                                               ; preds = %77
  %83 = load i8, ptr %35, align 1
  %84 = trunc i8 %83 to i1
  %85 = zext i1 %84 to i32
  %86 = icmp eq i32 %85, 0
  br label %87

87:                                               ; preds = %82, %77
  %88 = phi i1 [ true, %77 ], [ %86, %82 ]
  call void @llvm.assume(i1 %88)
  %89 = load i8, ptr %35, align 1
  %90 = trunc i8 %89 to i1
  br i1 %90, label %91, label %102

91:                                               ; preds = %87
  %92 = load i32, ptr %29, align 4
  %93 = load i32, ptr %28, align 4
  %94 = icmp ugt i32 %92, %93
  %95 = xor i1 %94, true
  %96 = xor i1 %95, true
  %97 = zext i1 %96 to i32
  %98 = sext i32 %97 to i64
  %99 = icmp ne i64 %98, 0
  br i1 %99, label %100, label %101

100:                                              ; preds = %91
  br label %148

101:                                              ; preds = %91
  br label %102

102:                                              ; preds = %101, %87
  %103 = load ptr, ptr %30, align 8
  %104 = getelementptr inbounds %struct._zval_struct, ptr %103, i32 1
  store ptr %104, ptr %30, align 8
  %105 = load ptr, ptr %30, align 8
  store ptr %105, ptr %31, align 8
  %106 = load ptr, ptr %31, align 8
  store ptr %106, ptr %16, align 8
  store ptr %21, ptr %17, align 8
  store i8 0, ptr %18, align 1
  %107 = load ptr, ptr %16, align 8
  store ptr %107, ptr %13, align 8
  %108 = load ptr, ptr %13, align 8
  %109 = getelementptr inbounds %struct._zval_struct, ptr %108, i32 0, i32 1
  %110 = load i8, ptr %109, align 8
  %111 = zext i8 %110 to i32
  %112 = icmp eq i32 %111, 9
  br i1 %112, label %113, label %116

113:                                              ; preds = %102
  %114 = load ptr, ptr %16, align 8
  %115 = load ptr, ptr %17, align 8
  store ptr %114, ptr %115, align 8
  br label %129

116:                                              ; preds = %102
  %117 = load i8, ptr %18, align 1
  %118 = trunc i8 %117 to i1
  br i1 %118, label %119, label %128

119:                                              ; preds = %116
  %120 = load ptr, ptr %16, align 8
  store ptr %120, ptr %14, align 8
  %121 = load ptr, ptr %14, align 8
  %122 = getelementptr inbounds %struct._zval_struct, ptr %121, i32 0, i32 1
  %123 = load i8, ptr %122, align 8
  %124 = zext i8 %123 to i32
  %125 = icmp eq i32 %124, 1
  br i1 %125, label %126, label %128

126:                                              ; preds = %119
  %127 = load ptr, ptr %17, align 8
  store ptr null, ptr %127, align 8
  br label %129

128:                                              ; preds = %119, %116
  store i1 false, ptr %15, align 1
  br label %130

129:                                              ; preds = %126, %113
  store i1 true, ptr %15, align 1
  br label %130

130:                                              ; preds = %129, %128
  %131 = load i1, ptr %15, align 1
  %132 = xor i1 %131, true
  %133 = xor i1 %132, true
  %134 = xor i1 %133, true
  %135 = zext i1 %134 to i32
  %136 = sext i32 %135 to i64
  %137 = icmp ne i64 %136, 0
  br i1 %137, label %138, label %139

138:                                              ; preds = %130
  store i32 14, ptr %32, align 4
  store i32 9, ptr %36, align 4
  br label %148

139:                                              ; preds = %130
  %140 = load i32, ptr %29, align 4
  %141 = load i32, ptr %27, align 4
  %142 = icmp eq i32 %140, %141
  br i1 %142, label %146, label %143

143:                                              ; preds = %139
  %144 = load i32, ptr %27, align 4
  %145 = icmp eq i32 %144, -1
  br label %146

146:                                              ; preds = %143, %139
  %147 = phi i1 [ true, %139 ], [ %145, %143 ]
  call void @llvm.assume(i1 %147)
  br label %148

148:                                              ; preds = %146, %138, %100, %61
  %149 = load i32, ptr %36, align 4
  %150 = icmp ne i32 %149, 0
  %151 = xor i1 %150, true
  %152 = xor i1 %151, true
  %153 = zext i1 %152 to i32
  %154 = sext i32 %153 to i64
  %155 = icmp ne i64 %154, 0
  br i1 %155, label %156, label %162

156:                                              ; preds = %148
  %157 = load i32, ptr %36, align 4
  %158 = load i32, ptr %29, align 4
  %159 = load ptr, ptr %33, align 8
  %160 = load i32, ptr %32, align 4
  %161 = load ptr, ptr %31, align 8
  call void @zend_wrong_parameter_error(i32 noundef %157, i32 noundef %158, ptr noundef %159, i32 noundef %160, ptr noundef %161)
  br label %229

162:                                              ; preds = %148
  br label %163

163:                                              ; preds = %162
  %164 = load ptr, ptr %21, align 8
  %165 = getelementptr inbounds %struct._zval_struct, ptr %164, i32 0, i32 0
  %166 = load ptr, ptr %165, align 8
  %167 = load i32, ptr @le_bucket_brigade, align 4
  %168 = call ptr @zend_fetch_resource(ptr noundef %166, ptr noundef @.str.1, i32 noundef %167)
  store ptr %168, ptr %23, align 8
  %169 = icmp eq ptr %168, null
  br i1 %169, label %170, label %175

170:                                              ; preds = %163
  br label %171

171:                                              ; preds = %170
  %172 = load ptr, ptr getelementptr inbounds (%struct._zend_executor_globals, ptr @executor_globals, i32 0, i32 50), align 8
  %173 = icmp ne ptr %172, null
  call void @llvm.assume(i1 %173)
  br label %229

174:                                              ; No predecessors!
  br label %175

175:                                              ; preds = %174, %163
  br label %176

176:                                              ; preds = %175
  %177 = load ptr, ptr %20, align 8
  %178 = getelementptr inbounds %struct._zval_struct, ptr %177, i32 0, i32 1
  store i32 1, ptr %178, align 8
  br label %179

179:                                              ; preds = %176
  %180 = load ptr, ptr %23, align 8
  %181 = getelementptr inbounds %struct._php_stream_bucket_brigade, ptr %180, i32 0, i32 0
  %182 = load ptr, ptr %181, align 8
  %183 = icmp ne ptr %182, null
  br i1 %183, label %184, label %229

184:                                              ; preds = %179
  %185 = load ptr, ptr %23, align 8
  %186 = getelementptr inbounds %struct._php_stream_bucket_brigade, ptr %185, i32 0, i32 0
  %187 = load ptr, ptr %186, align 8
  %188 = call ptr @php_stream_bucket_make_writeable(ptr noundef %187)
  store ptr %188, ptr %24, align 8
  %189 = icmp ne ptr %188, null
  br i1 %189, label %190, label %229

190:                                              ; preds = %184
  br label %191

191:                                              ; preds = %190
  store ptr %22, ptr %37, align 8
  %192 = load ptr, ptr %24, align 8
  %193 = load i32, ptr @le_bucket, align 4
  %194 = call ptr @zend_register_resource(ptr noundef %192, i32 noundef %193)
  %195 = load ptr, ptr %37, align 8
  %196 = getelementptr inbounds %struct._zval_struct, ptr %195, i32 0, i32 0
  store ptr %194, ptr %196, align 8
  %197 = load ptr, ptr %37, align 8
  %198 = getelementptr inbounds %struct._zval_struct, ptr %197, i32 0, i32 1
  store i32 265, ptr %198, align 8
  br label %199

199:                                              ; preds = %191
  %200 = load ptr, ptr %20, align 8
  call void @object_init(ptr noundef %200)
  %201 = load ptr, ptr %20, align 8
  store ptr %201, ptr %10, align 8
  store ptr @.str.7, ptr %11, align 8
  store ptr %22, ptr %12, align 8
  %202 = load ptr, ptr %10, align 8
  %203 = load ptr, ptr %11, align 8
  %204 = load ptr, ptr %11, align 8
  %205 = call i64 @strlen(ptr noundef %204) #13
  %206 = load ptr, ptr %12, align 8
  call void @add_property_zval_ex(ptr noundef %202, ptr noundef %203, i64 noundef %205, ptr noundef %206) #12
  call void @zval_ptr_dtor(ptr noundef %22)
  %207 = load ptr, ptr %20, align 8
  %208 = load ptr, ptr %24, align 8
  %209 = getelementptr inbounds %struct._php_stream_bucket, ptr %208, i32 0, i32 3
  %210 = load ptr, ptr %209, align 8
  %211 = load ptr, ptr %24, align 8
  %212 = getelementptr inbounds %struct._php_stream_bucket, ptr %211, i32 0, i32 4
  %213 = load i64, ptr %212, align 8
  store ptr %207, ptr %6, align 8
  store ptr @.str.8, ptr %7, align 8
  store ptr %210, ptr %8, align 8
  store i64 %213, ptr %9, align 8
  %214 = load ptr, ptr %6, align 8
  %215 = load ptr, ptr %7, align 8
  %216 = load ptr, ptr %7, align 8
  %217 = call i64 @strlen(ptr noundef %216) #13
  %218 = load ptr, ptr %8, align 8
  %219 = load i64, ptr %9, align 8
  call void @add_property_stringl_ex(ptr noundef %214, ptr noundef %215, i64 noundef %217, ptr noundef %218, i64 noundef %219) #12
  %220 = load ptr, ptr %20, align 8
  %221 = load ptr, ptr %24, align 8
  %222 = getelementptr inbounds %struct._php_stream_bucket, ptr %221, i32 0, i32 4
  %223 = load i64, ptr %222, align 8
  store ptr %220, ptr %3, align 8
  store ptr @.str.9, ptr %4, align 8
  store i64 %223, ptr %5, align 8
  %224 = load ptr, ptr %3, align 8
  %225 = load ptr, ptr %4, align 8
  %226 = load ptr, ptr %4, align 8
  %227 = call i64 @strlen(ptr noundef %226) #13
  %228 = load i64, ptr %5, align 8
  call void @add_property_long_ex(ptr noundef %224, ptr noundef %225, i64 noundef %227, i64 noundef %228) #12
  br label %229

229:                                              ; preds = %199, %184, %179, %171, %156
  ret void
}