; Function Attrs: nounwind uwtable
define hidden void @zif_stream_bucket_make_writeable(ptr noundef %0, ptr noundef %1) local_unnamed_addr #0 {
  %3 = alloca %struct._zval_struct, align 8
  %4 = getelementptr inbounds i8, ptr %0, i64 44
  %5 = load i32, ptr %4, align 4
  %cond = icmp eq i32 %5, 1
  br i1 %cond, label %7, label %6

6:                                                ; preds = %2
  tail call void @zend_wrong_parameters_count_error(i32 noundef 1, i32 noundef 1) #11
  br label %11

7:                                                ; preds = %2
  %8 = getelementptr inbounds i8, ptr %0, i64 80
  %9 = getelementptr inbounds i8, ptr %0, i64 88
  %10 = load i8, ptr %9, align 8
  %.not74 = icmp eq i8 %10, 9
  br i1 %.not74, label %12, label %11

11:                                               ; preds = %6, %7
  %.067.ph = phi i32 [ 14, %7 ], [ 0, %6 ]
  %.066.ph = phi ptr [ %8, %7 ], [ null, %6 ]
  %.065.ph = phi i32 [ 1, %7 ], [ 0, %6 ]
  %.064.ph = phi i32 [ 9, %7 ], [ 1, %6 ]
  tail call void @zend_wrong_parameter_error(i32 noundef %.064.ph, i32 noundef %.065.ph, ptr noundef null, i32 noundef %.067.ph, ptr noundef %.066.ph) #11
  br label %34

12:                                               ; preds = %7
  %13 = load ptr, ptr %8, align 8
  %14 = load i32, ptr @le_bucket_brigade, align 4
  %15 = tail call ptr @zend_fetch_resource(ptr noundef %13, ptr noundef nonnull @.str.1, i32 noundef %14) #11
  %16 = icmp eq ptr %15, null
  br i1 %16, label %17, label %20

17:                                               ; preds = %12
  %18 = load ptr, ptr getelementptr inbounds (%struct._zend_executor_globals, ptr @executor_globals, i64 0, i32 50), align 8
  %19 = icmp ne ptr %18, null
  tail call void @llvm.assume(i1 %19)
  br label %34

20:                                               ; preds = %12
  %21 = getelementptr inbounds i8, ptr %1, i64 8
  store i32 1, ptr %21, align 8
  %22 = load ptr, ptr %15, align 8
  %.not76 = icmp eq ptr %22, null
  br i1 %.not76, label %34, label %23

23:                                               ; preds = %20
  %24 = tail call ptr @php_stream_bucket_make_writeable(ptr noundef nonnull %22) #11
  %.not77 = icmp eq ptr %24, null
  br i1 %.not77, label %34, label %25

25:                                               ; preds = %23
  %26 = load i32, ptr @le_bucket, align 4
  %27 = tail call ptr @zend_register_resource(ptr noundef nonnull %24, i32 noundef %26) #11
  store ptr %27, ptr %3, align 8
  %28 = getelementptr inbounds i8, ptr %3, i64 8
  store i32 265, ptr %28, align 8
  tail call void @object_init(ptr noundef nonnull %1) #11
  call void @add_property_zval_ex(ptr noundef nonnull %1, ptr noundef nonnull @.str.7, i64 noundef 6, ptr noundef nonnull %3) #11
  call void @zval_ptr_dtor(ptr noundef nonnull %3) #11
  %29 = getelementptr inbounds i8, ptr %24, i64 24
  %30 = load ptr, ptr %29, align 8
  %31 = getelementptr inbounds i8, ptr %24, i64 32
  %32 = load i64, ptr %31, align 8
  call void @add_property_stringl_ex(ptr noundef nonnull %1, ptr noundef nonnull @.str.8, i64 noundef 4, ptr noundef %30, i64 noundef %32) #11
  %33 = load i64, ptr %31, align 8
  call void @add_property_long_ex(ptr noundef nonnull %1, ptr noundef nonnull @.str.9, i64 noundef 7, i64 noundef %33) #11
  br label %34

34:                                               ; preds = %25, %23, %20, %17, %11
  ret void
}